target datalayout = "e-m:e-p270:32:32-p271:32:32-p272:64:64-i64:64-i128:128-f80:128-n8:16:32:64-S128"
target triple = "x86_64-pc-linux-gnu"

@.str.201 = private unnamed_addr constant [8 x i8] c"Unknown\00", align 1
@.str.202 = private unnamed_addr constant [3 x i8] c"%d\00", align 1

; Function Attrs: null_pointer_is_valid sspstrong uwtable
define internal void @megaco_fmt_content(ptr noundef %0, i32 noundef %1) #0 {
  %3 = alloca ptr, align 8
  %4 = alloca i32, align 4
  store ptr %0, ptr %3, align 8
  store i32 %1, ptr %4, align 4
  %5 = load i32, ptr %4, align 4
  switch i32 %5, label %11 [
    i32 -2, label %6
    i32 -1, label %6
    i32 0, label %6
  ]

6:                                                ; preds = %2, %2, %2
  %7 = load ptr, ptr %3, align 8
  %8 = load i32, ptr %4, align 4
  %9 = call ptr @val_to_str_const(i32 noundef %8, ptr noundef @megaco_context_vals, ptr noundef @.str.201)
  %10 = call i64 @g_strlcpy(ptr noundef %7, ptr noundef %9, i64 noundef 240)
  br label %17

11:                                               ; preds = %2
  %12 = load ptr, ptr %3, align 8
  %13 = load ptr, ptr %3, align 8
  %14 = call i64 @llvm.objectsize.i64.p0(ptr %13, i1 false, i1 true, i1 true)
  %15 = load i32, ptr %4, align 4
  %16 = call i32 (ptr, i64, i32, i64, ptr, ...) @__snprintf_chk(ptr noundef %12, i64 noundef 240, i32 noundef 2, i64 noundef %14, ptr noundef @.str.202, i32 noundef %15)
  br label %17

17:                                               ; preds = %11, %6
  ret void
}