; Function Attrs: null_pointer_is_valid sspstrong uwtable
define internal void @megaco_fmt_content(ptr noundef %0, i32 noundef %1) #0 {
  switch i32 %1, label %6 [
    i32 -2, label %3
    i32 -1, label %3
    i32 0, label %3
  ]

3:                                                ; preds = %2, %2, %2
  %4 = tail call ptr @val_to_str_const(i32 noundef %1, ptr noundef nonnull @megaco_context_vals, ptr noundef nonnull @.str.201)
  %5 = tail call i64 @g_strlcpy(ptr noundef %0, ptr noundef %4, i64 noundef 240)
  br label %8

6:                                                ; preds = %2
  %7 = tail call i32 (ptr, i64, i32, i64, ptr, ...) @__snprintf_chk(ptr noundef %0, i64 noundef 240, i32 noundef 2, i64 noundef -1, ptr noundef nonnull @.str.202, i32 noundef %1)
  br label %8

8:                                                ; preds = %6, %3
  ret void
}